target datalayout = "e-m:e-p270:32:32-p271:32:32-p272:64:64-i64:64-i128:128-f80:128-n8:16:32:64-S128"
target triple = "x86_64-unknown-linux-gnu"

%"class.v8::IndirectHandleBase" = type { ptr }
%"class.node::MemoryRetainer" = type { ptr }
%"struct.std::_Rb_tree_header" = type { %"struct.std::_Rb_tree_node_base", i64 }
%"struct.std::_Rb_tree_node_base" = type { i32, ptr, ptr, ptr }
%"class.v8::Global.17" = type { %"class.v8::PersistentBase.18" }
%"class.v8::PersistentBase.18" = type { %"class.v8::IndirectHandleBase" }
%"class.node::BaseObject" = type { %"class.node::MemoryRetainer", %"class.v8::Global.17", ptr, ptr }
%"class.node::(anonymous namespace)::ConnectionsList" = type { %"class.node::BaseObject", %"class.std::set.382", %"class.std::set.382" }
%"class.std::set.382" = type { %"class.std::_Rb_tree.383" }
%"class.std::_Rb_tree.383" = type { %"struct.std::_Rb_tree<node::(anonymous namespace)::Parser *, node::(anonymous namespace)::Parser *, std::_Identity<node::(anonymous namespace)::Parser *>, node::(anonymous namespace)::ParserComparator>::_Rb_tree_impl" }
%"struct.std::_Rb_tree<node::(anonymous namespace)::Parser *, node::(anonymous namespace)::Parser *, std::_Identity<node::(anonymous namespace)::Parser *>, node::(anonymous namespace)::ParserComparator>::_Rb_tree_impl" = type { %"struct.std::_Rb_tree_key_compare.387", %"struct.std::_Rb_tree_header" }
%"struct.std::_Rb_tree_key_compare.387" = type { %"struct.node::(anonymous namespace)::ParserComparator" }
%"struct.node::(anonymous namespace)::ParserComparator" = type { i8 }

; Function Attrs: mustprogress nounwind uwtable
define internal void @_ZNSt15__new_allocatorISt13_Rb_tree_nodeIPN4node12_GLOBAL__N_16ParserEEED2Ev(ptr noundef nonnull align 1 dereferenceable(1) %this) unnamed_addr #4 align 2 {
entry:
  %this.addr = alloca ptr, align 8
  store ptr %this, ptr %this.addr, align 8
  ret void
}

; Function Attrs: mustprogress nounwind uwtable
define internal void @_ZNSaISt13_Rb_tree_nodeIPN4node12_GLOBAL__N_16ParserEEED2Ev(ptr noundef nonnull align 1 dereferenceable(1) %this) unnamed_addr #4 align 2 {
entry:
  %this.addr = alloca ptr, align 8
  store ptr %this, ptr %this.addr, align 8
  %this1 = load ptr, ptr %this.addr, align 8
  call void @_ZNSt15__new_allocatorISt13_Rb_tree_nodeIPN4node12_GLOBAL__N_16ParserEEED2Ev(ptr noundef nonnull align 1 dereferenceable(1) %this1) #3
  ret void
}

; Function Attrs: mustprogress nounwind uwtable
define internal noundef ptr @_ZNKSt8_Rb_treeIPN4node12_GLOBAL__N_16ParserES3_St9_IdentityIS3_ENS1_16ParserComparatorESaIS3_EE9_M_mbeginEv(ptr noundef nonnull align 8 dereferenceable(48) %this) #4 align 2 {
entry:
  %this.addr = alloca ptr, align 8
  store ptr %this, ptr %this.addr, align 8
  %this1 = load ptr, ptr %this.addr, align 8
  %_M_impl = getelementptr inbounds %"class.std::_Rb_tree.383", ptr %this1, i32 0, i32 0
  %add.ptr = getelementptr inbounds i8, ptr %_M_impl, i64 8
  %_M_header = getelementptr inbounds %"struct.std::_Rb_tree_header", ptr %add.ptr, i32 0, i32 0
  %_M_parent = getelementptr inbounds %"struct.std::_Rb_tree_node_base", ptr %_M_header, i32 0, i32 1
  %0 = load ptr, ptr %_M_parent, align 8
  ret ptr %0
}

; Function Attrs: mustprogress nounwind uwtable
define internal void @_ZNSt8_Rb_treeIPN4node12_GLOBAL__N_16ParserES3_St9_IdentityIS3_ENS1_16ParserComparatorESaIS3_EE13_Rb_tree_implIS6_Lb1EED2Ev(ptr noundef nonnull align 8 dereferenceable(48) %this) unnamed_addr #4 align 2 {
entry:
  %this.addr = alloca ptr, align 8
  store ptr %this, ptr %this.addr, align 8
  %this1 = load ptr, ptr %this.addr, align 8
  call void @_ZNSaISt13_Rb_tree_nodeIPN4node12_GLOBAL__N_16ParserEEED2Ev(ptr noundef nonnull align 1 dereferenceable(1) %this1) #3
  ret void
}

; Function Attrs: mustprogress nounwind uwtable
define internal noundef ptr @_ZNSt8_Rb_treeIPN4node12_GLOBAL__N_16ParserES3_St9_IdentityIS3_ENS1_16ParserComparatorESaIS3_EE8_M_beginEv(ptr noundef nonnull align 8 dereferenceable(48) %this) #4 align 2 {
entry:
  %this.addr = alloca ptr, align 8
  store ptr %this, ptr %this.addr, align 8
  %this1 = load ptr, ptr %this.addr, align 8
  %call = call noundef ptr @_ZNKSt8_Rb_treeIPN4node12_GLOBAL__N_16ParserES3_St9_IdentityIS3_ENS1_16ParserComparatorESaIS3_EE9_M_mbeginEv(ptr noundef nonnull align 8 dereferenceable(48) %this1) #3
  ret ptr %call
}

; Function Attrs: mustprogress nounwind uwtable
define internal void @_ZNSt8_Rb_treeIPN4node12_GLOBAL__N_16ParserES3_St9_IdentityIS3_ENS1_16ParserComparatorESaIS3_EED2Ev(ptr noundef nonnull align 8 dereferenceable(48) %this) unnamed_addr #4 align 2 {
entry:
  %this.addr = alloca ptr, align 8
  store ptr %this, ptr %this.addr, align 8
  %this1 = load ptr, ptr %this.addr, align 8
  %call = call noundef ptr @_ZNSt8_Rb_treeIPN4node12_GLOBAL__N_16ParserES3_St9_IdentityIS3_ENS1_16ParserComparatorESaIS3_EE8_M_beginEv(ptr noundef nonnull align 8 dereferenceable(48) %this1) #3
  call void @_ZNSt8_Rb_treeIPN4node12_GLOBAL__N_16ParserES3_St9_IdentityIS3_ENS1_16ParserComparatorESaIS3_EE8_M_eraseEPSt13_Rb_tree_nodeIS3_E(ptr noundef nonnull align 8 dereferenceable(48) %this1, ptr noundef %call)
  %_M_impl = getelementptr inbounds %"class.std::_Rb_tree.383", ptr %this1, i32 0, i32 0
  call void @_ZNSt8_Rb_treeIPN4node12_GLOBAL__N_16ParserES3_St9_IdentityIS3_ENS1_16ParserComparatorESaIS3_EE13_Rb_tree_implIS6_Lb1EED2Ev(ptr noundef nonnull align 8 dereferenceable(48) %_M_impl) #3
  ret void
}

; Function Attrs: mustprogress nounwind uwtable
define internal void @_ZNSt3setIPN4node12_GLOBAL__N_16ParserENS1_16ParserComparatorESaIS3_EED2Ev(ptr noundef nonnull align 8 dereferenceable(48) %this) unnamed_addr #4 align 2 {
entry:
  %this.addr = alloca ptr, align 8
  store ptr %this, ptr %this.addr, align 8
  %this1 = load ptr, ptr %this.addr, align 8
  %_M_t = getelementptr inbounds %"class.std::set.382", ptr %this1, i32 0, i32 0
  call void @_ZNSt8_Rb_treeIPN4node12_GLOBAL__N_16ParserES3_St9_IdentityIS3_ENS1_16ParserComparatorESaIS3_EED2Ev(ptr noundef nonnull align 8 dereferenceable(48) %_M_t) #3
  ret void
}

; Function Attrs: mustprogress nounwind uwtable
define internal void @_ZN4node12_GLOBAL__N_115ConnectionsListD2Ev(ptr noundef nonnull align 8 dereferenceable(128) %this) unnamed_addr #4 align 2 {
entry:
  %this.addr = alloca ptr, align 8
  store ptr %this, ptr %this.addr, align 8
  %this1 = load ptr, ptr %this.addr, align 8
  store ptr getelementptr inbounds ({ [19 x ptr] }, ptr @_ZTVN4node12_GLOBAL__N_115ConnectionsListE, i32 0, i32 0, i32 2), ptr %this1, align 8
  %active_connections_ = getelementptr inbounds %"class.node::(anonymous namespace)::ConnectionsList", ptr %this1, i32 0, i32 2
  call void @_ZNSt3setIPN4node12_GLOBAL__N_16ParserENS1_16ParserComparatorESaIS3_EED2Ev(ptr noundef nonnull align 8 dereferenceable(48) %active_connections_) #3
  %all_connections_ = getelementptr inbounds %"class.node::(anonymous namespace)::ConnectionsList", ptr %this1, i32 0, i32 1
  call void @_ZNSt3setIPN4node12_GLOBAL__N_16ParserENS1_16ParserComparatorESaIS3_EED2Ev(ptr noundef nonnull align 8 dereferenceable(48) %all_connections_) #3
  call void @_ZN4node10BaseObjectD2Ev(ptr noundef nonnull align 8 dereferenceable(32) %this1) #3
  ret void
}