; Function Attrs: mustprogress nounwind uwtable
define internal void @_ZN4node12_GLOBAL__N_115ConnectionsListD2Ev(ptr noundef nonnull align 8 dereferenceable(128) %this) unnamed_addr #3 align 2 {
entry:
  store ptr getelementptr inbounds ({ [19 x ptr] }, ptr @_ZTVN4node12_GLOBAL__N_115ConnectionsListE, i64 0, i32 0, i64 2), ptr %this, align 8
  %0 = getelementptr inbounds i8, ptr %this, i64 96
  %this.val.i.i = load ptr, ptr %0, align 8
  tail call fastcc void @_ZNSt8_Rb_treeIPN4node12_GLOBAL__N_16ParserES3_St9_IdentityIS3_ENS1_16ParserComparatorESaIS3_EE8_M_eraseEPSt13_Rb_tree_nodeIS3_E(ptr noundef %this.val.i.i)
  %1 = getelementptr inbounds i8, ptr %this, i64 48
  %this.val.i.i1 = load ptr, ptr %1, align 8
  tail call fastcc void @_ZNSt8_Rb_treeIPN4node12_GLOBAL__N_16ParserES3_St9_IdentityIS3_ENS1_16ParserComparatorESaIS3_EE8_M_eraseEPSt13_Rb_tree_nodeIS3_E(ptr noundef %this.val.i.i1)
  tail call void @_ZN4node10BaseObjectD2Ev(ptr noundef nonnull align 8 dereferenceable(32) %this) #20
  ret void
}